; ModuleID = '29/1485.c'
source_filename = "29/1485.c"
target datalayout = "e-m:e-p270:32:32-p271:32:32-p272:64:64-i64:64-f80:128-n8:16:32:64-S128"
target triple = "x86_64-pc-linux-gnu"

@.str = private unnamed_addr constant [3 x i8] c"%d\00", align 1
@.str.1 = private unnamed_addr constant [6 x i8] c"%.3f\0A\00", align 1

; Function Attrs: noinline nounwind uwtable
define dso_local i32 @main() #0 {
  %1 = alloca i32, align 4
  %2 = alloca i32, align 4
  %3 = alloca i32, align 4
  %4 = alloca i32, align 4
  %5 = alloca i32, align 4
  %6 = alloca float, align 4
  %7 = alloca [100 x float], align 16
  %8 = alloca [100 x float], align 16
  store i32 0, i32* %1, align 4
  store float 0.000000e+00, float* %6, align 4
  %9 = bitcast [100 x float]* %7 to i8*
  call void @llvm.memset.p0i8.i64(i8* align 16 %9, i8 0, i64 400, i1 false)
  %10 = bitcast [100 x float]* %8 to i8*
  call void @llvm.memset.p0i8.i64(i8* align 16 %10, i8 0, i64 400, i1 false)
  %11 = getelementptr inbounds [100 x float], [100 x float]* %8, i64 0, i64 1
  store float 1.000000e+00, float* %11, align 4
  %12 = getelementptr inbounds [100 x float], [100 x float]* %8, i64 0, i64 2
  store float 2.000000e+00, float* %12, align 8
  %13 = call i32 (i8*, ...) @__isoc99_scanf(i8* getelementptr inbounds ([3 x i8], [3 x i8]* @.str, i64 0, i64 0), i32* %2)
  store i32 1, i32* %4, align 4
  br label %14

14:                                               ; preds = %84, %0
  %15 = load i32, i32* %4, align 4
  %16 = load i32, i32* %2, align 4
  %17 = icmp sle i32 %15, %16
  br i1 %17, label %18, label %87

18:                                               ; preds = %14
  %19 = call i32 (i8*, ...) @__isoc99_scanf(i8* getelementptr inbounds ([3 x i8], [3 x i8]* @.str, i64 0, i64 0), i32* %3)
  store i32 3, i32* %5, align 4
  br label %20

20:                                               ; preds = %40, %18
  %21 = load i32, i32* %5, align 4
  %22 = load i32, i32* %3, align 4
  %23 = add nsw i32 %22, 1
  %24 = icmp sle i32 %21, %23
  br i1 %24, label %25, label %43

25:                                               ; preds = %20
  %26 = load i32, i32* %5, align 4
  %27 = sub nsw i32 %26, 1
  %28 = sext i32 %27 to i64
  %29 = getelementptr inbounds [100 x float], [100 x float]* %8, i64 0, i64 %28
  %30 = load float, float* %29, align 4
  %31 = load i32, i32* %5, align 4
  %32 = sub nsw i32 %31, 2
  %33 = sext i32 %32 to i64
  %34 = getelementptr inbounds [100 x float], [100 x float]* %8, i64 0, i64 %33
  %35 = load float, float* %34, align 4
  %36 = fadd float %30, %35
  %37 = load i32, i32* %5, align 4
  %38 = sext i32 %37 to i64
  %39 = getelementptr inbounds [100 x float], [100 x float]* %8, i64 0, i64 %38
  store float %36, float* %39, align 4
  br label %40

40:                                               ; preds = %25
  %41 = load i32, i32* %5, align 4
  %42 = add nsw i32 %41, 1
  store i32 %42, i32* %5, align 4
  br label %20

43:                                               ; preds = %20
  store i32 1, i32* %5, align 4
  br label %44

44:                                               ; preds = %62, %43
  %45 = load i32, i32* %5, align 4
  %46 = load i32, i32* %3, align 4
  %47 = icmp sle i32 %45, %46
  br i1 %47, label %48, label %65

48:                                               ; preds = %44
  %49 = load i32, i32* %5, align 4
  %50 = add nsw i32 %49, 1
  %51 = sext i32 %50 to i64
  %52 = getelementptr inbounds [100 x float], [100 x float]* %8, i64 0, i64 %51
  %53 = load float, float* %52, align 4
  %54 = load i32, i32* %5, align 4
  %55 = sext i32 %54 to i64
  %56 = getelementptr inbounds [100 x float], [100 x float]* %8, i64 0, i64 %55
  %57 = load float, float* %56, align 4
  %58 = fdiv float %53, %57
  %59 = load i32, i32* %5, align 4
  %60 = sext i32 %59 to i64
  %61 = getelementptr inbounds [100 x float], [100 x float]* %7, i64 0, i64 %60
  store float %58, float* %61, align 4
  br label %62

62:                                               ; preds = %48
  %63 = load i32, i32* %5, align 4
  %64 = add nsw i32 %63, 1
  store i32 %64, i32* %5, align 4
  br label %44

65:                                               ; preds = %44
  store i32 1, i32* %5, align 4
  br label %66

66:                                               ; preds = %77, %65
  %67 = load i32, i32* %5, align 4
  %68 = load i32, i32* %3, align 4
  %69 = icmp sle i32 %67, %68
  br i1 %69, label %70, label %80

70:                                               ; preds = %66
  %71 = load float, float* %6, align 4
  %72 = load i32, i32* %5, align 4
  %73 = sext i32 %72 to i64
  %74 = getelementptr inbounds [100 x float], [100 x float]* %7, i64 0, i64 %73
  %75 = load float, float* %74, align 4
  %76 = fadd float %71, %75
  store float %76, float* %6, align 4
  br label %77

77:                                               ; preds = %70
  %78 = load i32, i32* %5, align 4
  %79 = add nsw i32 %78, 1
  store i32 %79, i32* %5, align 4
  br label %66

80:                                               ; preds = %66
  %81 = load float, float* %6, align 4
  %82 = fpext float %81 to double
  %83 = call i32 (i8*, ...) @printf(i8* getelementptr inbounds ([6 x i8], [6 x i8]* @.str.1, i64 0, i64 0), double %82)
  store float 0.000000e+00, float* %6, align 4
  br label %84

84:                                               ; preds = %80
  %85 = load i32, i32* %4, align 4
  %86 = add nsw i32 %85, 1
  store i32 %86, i32* %4, align 4
  br label %14

87:                                               ; preds = %14
  %88 = call i32 @getchar()
  %89 = call i32 @getchar()
  %90 = call i32 @getchar()
  %91 = call i32 @getchar()
  %92 = load i32, i32* %1, align 4
  ret i32 %92
}

; Function Attrs: argmemonly nounwind willreturn
declare void @llvm.memset.p0i8.i64(i8* nocapture writeonly, i8, i64, i1 immarg) #1

declare dso_local i32 @__isoc99_scanf(i8*, ...) #2

declare dso_local i32 @printf(i8*, ...) #2

declare dso_local i32 @getchar() #2


!llvm.module.flags = !{!0}
!llvm.ident = !{!1}

!0 = !{i32 1, !"wchar_size", i32 4}
!1 = !{!"clang version 10.0.0-4ubuntu1 "}
